; Function Attrs: nounwind sspstrong uwtable
define internal void @net_socket_rs_finalize(ptr noundef %rs) #0 {
entry:
  %add.ptr = getelementptr i8, ptr %rs, i64 -384
  %buf = getelementptr inbounds nuw i8, ptr %rs, i64 20
  %packet_len = getelementptr inbounds nuw i8, ptr %rs, i64 12
  %0 = load i32, ptr %packet_len, align 4
  %call = tail call i64 @qemu_send_packet_async(ptr noundef %add.ptr, ptr noundef nonnull %buf, i32 noundef %0, ptr noundef nonnull @net_socket_send_completed) #8
  %cmp = icmp eq i64 %call, 0
  br i1 %cmp, label %if.then, label %if.end

if.then:                                          ; preds = %entry
  %read_poll.i = getelementptr i8, ptr %rs, i64 69696
  store i8 0, ptr %read_poll.i, align 8
  %fd.i.i = getelementptr i8, ptr %rs, i64 -4
  %1 = load i32, ptr %fd.i.i, align 4
  %write_poll.i.i = getelementptr i8, ptr %rs, i64 69697
  %2 = load i8, ptr %write_poll.i.i, align 1
  %tobool1.i.i = trunc i8 %2 to i1
  %cond2.i.i = select i1 %tobool1.i.i, ptr @net_socket_writable, ptr null
  tail call void @qemu_set_fd_handler(i32 noundef %1, ptr noundef null, ptr noundef %cond2.i.i, ptr noundef nonnull %add.ptr) #8
  br label %if.end

if.end:                                           ; preds = %if.then, %entry
  ret void
}